target datalayout = "e-m:e-p270:32:32-p271:32:32-p272:64:64-i64:64-i128:128-f80:128-n8:16:32:64-S128"
target triple = "x86_64-pc-linux-gnu"

%struct.repository = type { ptr, ptr, ptr, ptr, ptr, %struct.strmap, %struct.strmap, %struct.repo_path_cache, ptr, ptr, ptr, ptr, %struct.repo_settings, ptr, ptr, ptr, ptr, ptr, ptr, i32, i32, i32, ptr, ptr, i32, i32, i8 }
%struct.strmap = type { %struct.hashmap, ptr, i8 }
%struct.hashmap = type { ptr, ptr, ptr, i32, i32, i32, i32, i8 }
%struct.repo_path_cache = type { ptr, ptr, ptr, ptr, ptr, ptr, ptr }
%struct.repo_settings = type { i32, i32, i32, i32, i32, i32, i32, i32, i32, i32, i32, i32, ptr, i32, i32, i32, i32, i32, i32, i32, i64, i64, i64 }
%struct.fsmonitor_settings = type { i32, i32, ptr }

; Function Attrs: nounwind uwtable
define internal ptr @alloc_settings() #0 {
  %1 = alloca ptr, align 8
  call void @llvm.lifetime.start.p0(i64 8, ptr %1) #7
  %2 = call ptr @xcalloc(i64 noundef 1, i64 noundef 16)
  store ptr %2, ptr %1, align 8, !tbaa !38
  %3 = load ptr, ptr %1, align 8, !tbaa !38
  %4 = getelementptr inbounds nuw %struct.fsmonitor_settings, ptr %3, i32 0, i32 0
  store i32 0, ptr %4, align 8, !tbaa !30
  %5 = load ptr, ptr %1, align 8, !tbaa !38
  %6 = getelementptr inbounds nuw %struct.fsmonitor_settings, ptr %5, i32 0, i32 1
  store i32 0, ptr %6, align 4, !tbaa !36
  %7 = load ptr, ptr %1, align 8, !tbaa !38
  call void @llvm.lifetime.end.p0(i64 8, ptr %1) #7
  ret ptr %7
}

; Function Attrs: nounwind uwtable
define dso_local void @fsm_settings__set_incompatible(ptr noundef %0, i32 noundef %1) #0 {
  %3 = alloca ptr, align 8
  %4 = alloca i32, align 4
  store ptr %0, ptr %3, align 8, !tbaa !4
  store i32 %1, ptr %4, align 4, !tbaa !33
  %5 = load ptr, ptr %3, align 8, !tbaa !4
  %6 = getelementptr inbounds nuw %struct.repository, ptr %5, i32 0, i32 12
  %7 = getelementptr inbounds nuw %struct.repo_settings, ptr %6, i32 0, i32 12
  %8 = load ptr, ptr %7, align 8, !tbaa !9
  %9 = icmp ne ptr %8, null
  br i1 %9, label %15, label %10

10:                                               ; preds = %2
  %11 = call ptr @alloc_settings()
  %12 = load ptr, ptr %3, align 8, !tbaa !4
  %13 = getelementptr inbounds nuw %struct.repository, ptr %12, i32 0, i32 12
  %14 = getelementptr inbounds nuw %struct.repo_settings, ptr %13, i32 0, i32 12
  store ptr %11, ptr %14, align 8, !tbaa !9
  br label %15

15:                                               ; preds = %10, %2
  %16 = load ptr, ptr %3, align 8, !tbaa !4
  %17 = getelementptr inbounds nuw %struct.repository, ptr %16, i32 0, i32 12
  %18 = getelementptr inbounds nuw %struct.repo_settings, ptr %17, i32 0, i32 12
  %19 = load ptr, ptr %18, align 8, !tbaa !9
  %20 = getelementptr inbounds nuw %struct.fsmonitor_settings, ptr %19, i32 0, i32 0
  store i32 -1, ptr %20, align 8, !tbaa !30
  %21 = load i32, ptr %4, align 4, !tbaa !33
  %22 = load ptr, ptr %3, align 8, !tbaa !4
  %23 = getelementptr inbounds nuw %struct.repository, ptr %22, i32 0, i32 12
  %24 = getelementptr inbounds nuw %struct.repo_settings, ptr %23, i32 0, i32 12
  %25 = load ptr, ptr %24, align 8, !tbaa !9
  %26 = getelementptr inbounds nuw %struct.fsmonitor_settings, ptr %25, i32 0, i32 1
  store i32 %21, ptr %26, align 4, !tbaa !36
  br label %27

27:                                               ; preds = %15
  %28 = load ptr, ptr %3, align 8, !tbaa !4
  %29 = getelementptr inbounds nuw %struct.repository, ptr %28, i32 0, i32 12
  %30 = getelementptr inbounds nuw %struct.repo_settings, ptr %29, i32 0, i32 12
  %31 = load ptr, ptr %30, align 8, !tbaa !9
  %32 = getelementptr inbounds nuw %struct.fsmonitor_settings, ptr %31, i32 0, i32 2
  %33 = load ptr, ptr %32, align 8, !tbaa !35
  call void @free(ptr noundef %33) #7
  %34 = load ptr, ptr %3, align 8, !tbaa !4
  %35 = getelementptr inbounds nuw %struct.repository, ptr %34, i32 0, i32 12
  %36 = getelementptr inbounds nuw %struct.repo_settings, ptr %35, i32 0, i32 12
  %37 = load ptr, ptr %36, align 8, !tbaa !9
  %38 = getelementptr inbounds nuw %struct.fsmonitor_settings, ptr %37, i32 0, i32 2
  store ptr null, ptr %38, align 8, !tbaa !35
  br label %39

39:                                               ; preds = %27
  ret void
}

; Function Attrs: nounwind uwtable
define internal i32 @check_for_incompatible(ptr noundef %0, i32 noundef %1) #0 {
  %3 = alloca i32, align 4
  %4 = alloca ptr, align 8
  %5 = alloca i32, align 4
  store ptr %0, ptr %4, align 8, !tbaa !4
  store i32 %1, ptr %5, align 4, !tbaa !33
  %6 = load ptr, ptr %4, align 8, !tbaa !4
  %7 = getelementptr inbounds nuw %struct.repository, ptr %6, i32 0, i32 10
  %8 = load ptr, ptr %7, align 8, !tbaa !37
  %9 = icmp ne ptr %8, null
  br i1 %9, label %11, label %10

10:                                               ; preds = %2
  store i32 2, ptr %3, align 4
  br label %12

11:                                               ; preds = %2
  store i32 1, ptr %3, align 4
  br label %12

12:                                               ; preds = %11, %10
  %13 = load i32, ptr %3, align 4
  ret i32 %13
}

; Function Attrs: nounwind uwtable
define dso_local void @fsm_settings__set_hook(ptr noundef %0, ptr noundef %1) #0 {
  %3 = alloca ptr, align 8
  %4 = alloca ptr, align 8
  %5 = alloca i32, align 4
  %6 = alloca i32, align 4
  store ptr %0, ptr %3, align 8, !tbaa !4
  store ptr %1, ptr %4, align 8, !tbaa !32
  call void @llvm.lifetime.start.p0(i64 4, ptr %5) #7
  %7 = load ptr, ptr %3, align 8, !tbaa !4
  %8 = call i32 @check_for_incompatible(ptr noundef %7, i32 noundef 0)
  store i32 %8, ptr %5, align 4, !tbaa !33
  %9 = load i32, ptr %5, align 4, !tbaa !33
  %10 = icmp ne i32 %9, 1
  br i1 %10, label %11, label %14

11:                                               ; preds = %2
  %12 = load ptr, ptr %3, align 8, !tbaa !4
  %13 = load i32, ptr %5, align 4, !tbaa !33
  call void @fsm_settings__set_incompatible(ptr noundef %12, i32 noundef %13)
  store i32 1, ptr %6, align 4
  br label %58

14:                                               ; preds = %2
  %15 = load ptr, ptr %3, align 8, !tbaa !4
  %16 = getelementptr inbounds nuw %struct.repository, ptr %15, i32 0, i32 12
  %17 = getelementptr inbounds nuw %struct.repo_settings, ptr %16, i32 0, i32 12
  %18 = load ptr, ptr %17, align 8, !tbaa !9
  %19 = icmp ne ptr %18, null
  br i1 %19, label %25, label %20

20:                                               ; preds = %14
  %21 = call ptr @alloc_settings()
  %22 = load ptr, ptr %3, align 8, !tbaa !4
  %23 = getelementptr inbounds nuw %struct.repository, ptr %22, i32 0, i32 12
  %24 = getelementptr inbounds nuw %struct.repo_settings, ptr %23, i32 0, i32 12
  store ptr %21, ptr %24, align 8, !tbaa !9
  br label %25

25:                                               ; preds = %20, %14
  %26 = load ptr, ptr %3, align 8, !tbaa !4
  %27 = getelementptr inbounds nuw %struct.repository, ptr %26, i32 0, i32 12
  %28 = getelementptr inbounds nuw %struct.repo_settings, ptr %27, i32 0, i32 12
  %29 = load ptr, ptr %28, align 8, !tbaa !9
  %30 = getelementptr inbounds nuw %struct.fsmonitor_settings, ptr %29, i32 0, i32 0
  store i32 1, ptr %30, align 8, !tbaa !30
  %31 = load i32, ptr %5, align 4, !tbaa !33
  %32 = load ptr, ptr %3, align 8, !tbaa !4
  %33 = getelementptr inbounds nuw %struct.repository, ptr %32, i32 0, i32 12
  %34 = getelementptr inbounds nuw %struct.repo_settings, ptr %33, i32 0, i32 12
  %35 = load ptr, ptr %34, align 8, !tbaa !9
  %36 = getelementptr inbounds nuw %struct.fsmonitor_settings, ptr %35, i32 0, i32 1
  store i32 %31, ptr %36, align 4, !tbaa !36
  br label %37

37:                                               ; preds = %25
  %38 = load ptr, ptr %3, align 8, !tbaa !4
  %39 = getelementptr inbounds nuw %struct.repository, ptr %38, i32 0, i32 12
  %40 = getelementptr inbounds nuw %struct.repo_settings, ptr %39, i32 0, i32 12
  %41 = load ptr, ptr %40, align 8, !tbaa !9
  %42 = getelementptr inbounds nuw %struct.fsmonitor_settings, ptr %41, i32 0, i32 2
  %43 = load ptr, ptr %42, align 8, !tbaa !35
  call void @free(ptr noundef %43) #7
  %44 = load ptr, ptr %3, align 8, !tbaa !4
  %45 = getelementptr inbounds nuw %struct.repository, ptr %44, i32 0, i32 12
  %46 = getelementptr inbounds nuw %struct.repo_settings, ptr %45, i32 0, i32 12
  %47 = load ptr, ptr %46, align 8, !tbaa !9
  %48 = getelementptr inbounds nuw %struct.fsmonitor_settings, ptr %47, i32 0, i32 2
  store ptr null, ptr %48, align 8, !tbaa !35
  br label %49

49:                                               ; preds = %37
  br label %50

50:                                               ; preds = %49
  %51 = load ptr, ptr %4, align 8, !tbaa !32
  %52 = call noalias ptr @strdup(ptr noundef %51) #7
  %53 = load ptr, ptr %3, align 8, !tbaa !4
  %54 = getelementptr inbounds nuw %struct.repository, ptr %53, i32 0, i32 12
  %55 = getelementptr inbounds nuw %struct.repo_settings, ptr %54, i32 0, i32 12
  %56 = load ptr, ptr %55, align 8, !tbaa !9
  %57 = getelementptr inbounds nuw %struct.fsmonitor_settings, ptr %56, i32 0, i32 2
  store ptr %52, ptr %57, align 8, !tbaa !35
  store i32 0, ptr %6, align 4
  br label %58

58:                                               ; preds = %50, %11
  call void @llvm.lifetime.end.p0(i64 4, ptr %5) #7
  %59 = load i32, ptr %6, align 4
  switch i32 %59, label %61 [
    i32 0, label %60
    i32 1, label %60
  ]

60:                                               ; preds = %58, %58
  ret void

61:                                               ; preds = %58
  unreachable
}