; Function Attrs: nounwind uwtable
define dso_local void @fsm_settings__set_hook(ptr noundef captures(none) %0, ptr noundef readonly captures(none) %1) local_unnamed_addr #0 {
  %3 = getelementptr i8, ptr %0, i64 240
  %.val = load ptr, ptr %3, align 8, !tbaa !32
  %.not.i.not = icmp eq ptr %.val, null
  %4 = getelementptr inbounds nuw i8, ptr %0, i64 304
  %5 = load ptr, ptr %4, align 8, !tbaa !4
  %.not.i13 = icmp eq ptr %5, null
  br i1 %.not.i.not, label %6, label %16

6:                                                ; preds = %2
  br i1 %.not.i13, label %7, label %fsm_settings__set_incompatible.exit

7:                                                ; preds = %6
  %8 = tail call noundef ptr @xcalloc(i64 noundef 1, i64 noundef 16) #9
  store i32 0, ptr %8, align 8, !tbaa !28
  %9 = getelementptr inbounds nuw i8, ptr %8, i64 4
  store i32 0, ptr %9, align 4, !tbaa !33
  store ptr %8, ptr %4, align 8, !tbaa !4
  br label %fsm_settings__set_incompatible.exit

fsm_settings__set_incompatible.exit:              ; preds = %6, %7
  %10 = phi ptr [ %8, %7 ], [ %5, %6 ]
  store i32 -1, ptr %10, align 8, !tbaa !28
  %11 = getelementptr inbounds nuw i8, ptr %10, i64 4
  store i32 2, ptr %11, align 4, !tbaa !33
  %12 = getelementptr inbounds nuw i8, ptr %10, i64 8
  %13 = load ptr, ptr %12, align 8, !tbaa !34
  tail call void @free(ptr noundef %13) #9
  %14 = load ptr, ptr %4, align 8, !tbaa !4
  %15 = getelementptr inbounds nuw i8, ptr %14, i64 8
  store ptr null, ptr %15, align 8, !tbaa !34
  br label %28

16:                                               ; preds = %2
  br i1 %.not.i13, label %17, label %20

17:                                               ; preds = %16
  %18 = tail call noundef ptr @xcalloc(i64 noundef 1, i64 noundef 16) #9
  store i32 0, ptr %18, align 8, !tbaa !28
  %19 = getelementptr inbounds nuw i8, ptr %18, i64 4
  store i32 0, ptr %19, align 4, !tbaa !33
  store ptr %18, ptr %4, align 8, !tbaa !4
  br label %20

20:                                               ; preds = %17, %16
  %21 = phi ptr [ %18, %17 ], [ %5, %16 ]
  store i32 1, ptr %21, align 8, !tbaa !28
  %22 = getelementptr inbounds nuw i8, ptr %21, i64 4
  store i32 1, ptr %22, align 4, !tbaa !33
  %23 = getelementptr inbounds nuw i8, ptr %21, i64 8
  %24 = load ptr, ptr %23, align 8, !tbaa !34
  tail call void @free(ptr noundef %24) #9
  %25 = load ptr, ptr %4, align 8, !tbaa !4
  %26 = getelementptr inbounds nuw i8, ptr %25, i64 8
  store ptr null, ptr %26, align 8, !tbaa !34
  %27 = tail call noalias ptr @strdup(ptr noundef %1) #9
  store ptr %27, ptr %26, align 8, !tbaa !34
  br label %28

28:                                               ; preds = %20, %fsm_settings__set_incompatible.exit
  ret void
}